target datalayout = "e-m:e-p270:32:32-p271:32:32-p272:64:64-i64:64-i128:128-f80:128-n8:16:32:64-S128"
target triple = "x86_64-pc-linux-gnu"

%"class.std::__cxx11::basic_string" = type { %"struct.std::__cxx11::basic_string<char>::_Alloc_hider", i64, %union.anon }
%"struct.std::__cxx11::basic_string<char>::_Alloc_hider" = type { ptr }
%union.anon = type { i64, [8 x i8] }
%"class.std::allocator" = type { i8 }
%"class.std::shared_ptr" = type { %"class.std::__shared_ptr" }
%"class.std::__shared_ptr" = type { ptr, %"class.std::__shared_count" }
%"class.std::__shared_count" = type { ptr }
%"class.open_spiel::leduc_poker::LeducState" = type <{ %"class.open_spiel::State.base", i32, i32, i32, i32, i32, i32, i32, i32, i32, i32, i32, %"class.std::vector.9", %"class.std::vector.13", %"class.std::vector.13", %"class.std::vector.18", %"class.std::vector.13", %"class.std::vector.9", %"class.std::vector.13", %"class.std::vector.13", i8, i8, [6 x i8] }>
%"class.open_spiel::State.base" = type <{ ptr, %"class.std::shared_ptr", i32, i32, %"class.std::vector", i32 }>
%"class.std::vector" = type { %"struct.std::_Vector_base" }
%"struct.std::_Vector_base" = type { %"struct.std::_Vector_base<open_spiel::State::PlayerAction, std::allocator<open_spiel::State::PlayerAction>>::_Vector_impl" }
%"struct.std::_Vector_base<open_spiel::State::PlayerAction, std::allocator<open_spiel::State::PlayerAction>>::_Vector_impl" = type { %"struct.std::_Vector_base<open_spiel::State::PlayerAction, std::allocator<open_spiel::State::PlayerAction>>::_Vector_impl_data" }
%"struct.std::_Vector_base<open_spiel::State::PlayerAction, std::allocator<open_spiel::State::PlayerAction>>::_Vector_impl_data" = type { ptr, ptr, ptr }
%"class.std::vector.18" = type { %"struct.std::_Vector_base.19" }
%"struct.std::_Vector_base.19" = type { %"struct.std::_Vector_base<double, std::allocator<double>>::_Vector_impl" }
%"struct.std::_Vector_base<double, std::allocator<double>>::_Vector_impl" = type { %"struct.std::_Vector_base<double, std::allocator<double>>::_Vector_impl_data" }
%"struct.std::_Vector_base<double, std::allocator<double>>::_Vector_impl_data" = type { ptr, ptr, ptr }
%"class.std::vector.9" = type { %"struct.std::_Bvector_base" }
%"struct.std::_Bvector_base" = type { %"struct.std::_Bvector_base<std::allocator<bool>>::_Bvector_impl" }
%"struct.std::_Bvector_base<std::allocator<bool>>::_Bvector_impl" = type { %"struct.std::_Bvector_base<std::allocator<bool>>::_Bvector_impl_data" }
%"struct.std::_Bvector_base<std::allocator<bool>>::_Bvector_impl_data" = type { %"struct.std::_Bit_iterator", %"struct.std::_Bit_iterator", ptr }
%"struct.std::_Bit_iterator" = type { %"struct.std::_Bit_iterator_base.base", [4 x i8] }
%"struct.std::_Bit_iterator_base.base" = type <{ ptr, i32 }>
%"class.std::vector.13" = type { %"struct.std::_Vector_base.14" }
%"struct.std::_Vector_base.14" = type { %"struct.std::_Vector_base<int, std::allocator<int>>::_Vector_impl" }
%"struct.std::_Vector_base<int, std::allocator<int>>::_Vector_impl" = type { %"struct.std::_Vector_base<int, std::allocator<int>>::_Vector_impl_data" }
%"struct.std::_Vector_base<int, std::allocator<int>>::_Vector_impl_data" = type { ptr, ptr, ptr }
%"class.open_spiel::State" = type <{ ptr, %"class.std::shared_ptr", i32, i32, %"class.std::vector", i32, [4 x i8] }>

@.str.23 = private unnamed_addr constant [24 x i8] c"Suit isomorphism error.\00", align 1

; Function Attrs: mustprogress nounwind uwtable
define linkonce_odr noundef nonnull align 4 dereferenceable(4) ptr @_ZNSt6vectorIiSaIiEEixEm(ptr noundef nonnull align 8 dereferenceable(24) %0, i64 noundef %1) #5 comdat align 2 {
  %3 = alloca ptr, align 8
  %4 = alloca i64, align 8
  store ptr %0, ptr %3, align 8
  store i64 %1, ptr %4, align 8
  %5 = load ptr, ptr %3, align 8
  %6 = getelementptr inbounds nuw %"struct.std::_Vector_base.14", ptr %5, i32 0, i32 0
  %7 = getelementptr inbounds nuw %"struct.std::_Vector_base<int, std::allocator<int>>::_Vector_impl_data", ptr %6, i32 0, i32 0
  %8 = load ptr, ptr %7, align 8
  %9 = load i64, ptr %4, align 8
  %10 = getelementptr inbounds i32, ptr %8, i64 %9
  ret ptr %10
}

; Function Attrs: mustprogress uwtable
define void @_ZN10open_spiel11leduc_poker10LeducState10SetPrivateEil(ptr noundef nonnull align 8 dereferenceable(330) %0, i32 noundef %1, i64 noundef %2) #4 align 2 personality ptr @__gxx_personality_v0 {
  %4 = alloca ptr, align 8
  %5 = alloca i32, align 4
  %6 = alloca i64, align 8
  %7 = alloca %"class.std::__cxx11::basic_string", align 8
  %8 = alloca %"class.std::allocator", align 1
  %9 = alloca ptr, align 8
  %10 = alloca i32, align 4
  store ptr %0, ptr %4, align 8
  store i32 %1, ptr %5, align 4
  store i64 %2, ptr %6, align 8
  %11 = load ptr, ptr %4, align 8
  %12 = getelementptr inbounds nuw %"class.open_spiel::leduc_poker::LeducState", ptr %11, i32 0, i32 21
  %13 = load i8, ptr %12, align 1
  %14 = trunc i8 %13 to i1
  br i1 %14, label %15, label %61

15:                                               ; preds = %3
  %16 = load i64, ptr %6, align 8
  %17 = trunc i64 %16 to i32
  %18 = getelementptr inbounds nuw %"class.open_spiel::leduc_poker::LeducState", ptr %11, i32 0, i32 13
  %19 = load i32, ptr %5, align 4
  %20 = sext i32 %19 to i64
  %21 = call noundef nonnull align 4 dereferenceable(4) ptr @_ZNSt6vectorIiSaIiEEixEm(ptr noundef nonnull align 8 dereferenceable(24) %18, i64 noundef %20) #3
  store i32 %17, ptr %21, align 4
  %22 = getelementptr inbounds nuw %"class.open_spiel::leduc_poker::LeducState", ptr %11, i32 0, i32 14
  %23 = load i64, ptr %6, align 8
  %24 = mul nsw i64 %23, 2
  %25 = call noundef nonnull align 4 dereferenceable(4) ptr @_ZNSt6vectorIiSaIiEEixEm(ptr noundef nonnull align 8 dereferenceable(24) %22, i64 noundef %24) #3
  %26 = load i32, ptr %25, align 4
  %27 = icmp ne i32 %26, -10000
  br i1 %27, label %28, label %33

28:                                               ; preds = %15
  %29 = getelementptr inbounds nuw %"class.open_spiel::leduc_poker::LeducState", ptr %11, i32 0, i32 14
  %30 = load i64, ptr %6, align 8
  %31 = mul nsw i64 %30, 2
  %32 = call noundef nonnull align 4 dereferenceable(4) ptr @_ZNSt6vectorIiSaIiEEixEm(ptr noundef nonnull align 8 dereferenceable(24) %29, i64 noundef %31) #3
  store i32 -10000, ptr %32, align 4
  br label %60

33:                                               ; preds = %15
  %34 = getelementptr inbounds nuw %"class.open_spiel::leduc_poker::LeducState", ptr %11, i32 0, i32 14
  %35 = load i64, ptr %6, align 8
  %36 = mul nsw i64 %35, 2
  %37 = add nsw i64 %36, 1
  %38 = call noundef nonnull align 4 dereferenceable(4) ptr @_ZNSt6vectorIiSaIiEEixEm(ptr noundef nonnull align 8 dereferenceable(24) %34, i64 noundef %37) #3
  %39 = load i32, ptr %38, align 4
  %40 = icmp ne i32 %39, -10000
  br i1 %40, label %41, label %47

41:                                               ; preds = %33
  %42 = getelementptr inbounds nuw %"class.open_spiel::leduc_poker::LeducState", ptr %11, i32 0, i32 14
  %43 = load i64, ptr %6, align 8
  %44 = mul nsw i64 %43, 2
  %45 = add nsw i64 %44, 1
  %46 = call noundef nonnull align 4 dereferenceable(4) ptr @_ZNSt6vectorIiSaIiEEixEm(ptr noundef nonnull align 8 dereferenceable(24) %42, i64 noundef %45) #3
  store i32 -10000, ptr %46, align 4
  br label %59

47:                                               ; preds = %33
  call void @_ZNSaIcEC1Ev(ptr noundef nonnull align 1 dereferenceable(1) %8) #3
  invoke void @_ZNSt7__cxx1112basic_stringIcSt11char_traitsIcESaIcEEC2IS3_EEPKcRKS3_(ptr noundef nonnull align 8 dereferenceable(32) %7, ptr noundef @.str.23, ptr noundef nonnull align 1 dereferenceable(1) %8)
          to label %48 unwind label %50

48:                                               ; preds = %47
  invoke void @_ZN10open_spiel15SpielFatalErrorERKNSt7__cxx1112basic_stringIcSt11char_traitsIcESaIcEEE(ptr noundef nonnull align 8 dereferenceable(32) %7) #16
          to label %49 unwind label %54

49:                                               ; preds = %48
  unreachable

50:                                               ; preds = %47
  %51 = landingpad { ptr, i32 }
          cleanup
  %52 = extractvalue { ptr, i32 } %51, 0
  store ptr %52, ptr %9, align 8
  %53 = extractvalue { ptr, i32 } %51, 1
  store i32 %53, ptr %10, align 4
  br label %58

54:                                               ; preds = %48
  %55 = landingpad { ptr, i32 }
          cleanup
  %56 = extractvalue { ptr, i32 } %55, 0
  store ptr %56, ptr %9, align 8
  %57 = extractvalue { ptr, i32 } %55, 1
  store i32 %57, ptr %10, align 4
  call void @_ZNSt7__cxx1112basic_stringIcSt11char_traitsIcESaIcEED1Ev(ptr noundef nonnull align 8 dereferenceable(32) %7) #3
  br label %58

58:                                               ; preds = %54, %50
  call void @_ZNSaIcED1Ev(ptr noundef nonnull align 1 dereferenceable(1) %8) #3
  br label %88

59:                                               ; preds = %41
  br label %60

60:                                               ; preds = %59, %28
  br label %73

61:                                               ; preds = %3
  %62 = getelementptr inbounds nuw %"class.open_spiel::leduc_poker::LeducState", ptr %11, i32 0, i32 14
  %63 = load i64, ptr %6, align 8
  %64 = call noundef nonnull align 4 dereferenceable(4) ptr @_ZNSt6vectorIiSaIiEEixEm(ptr noundef nonnull align 8 dereferenceable(24) %62, i64 noundef %63) #3
  %65 = load i32, ptr %64, align 4
  %66 = getelementptr inbounds nuw %"class.open_spiel::leduc_poker::LeducState", ptr %11, i32 0, i32 13
  %67 = load i32, ptr %5, align 4
  %68 = sext i32 %67 to i64
  %69 = call noundef nonnull align 4 dereferenceable(4) ptr @_ZNSt6vectorIiSaIiEEixEm(ptr noundef nonnull align 8 dereferenceable(24) %66, i64 noundef %68) #3
  store i32 %65, ptr %69, align 4
  %70 = getelementptr inbounds nuw %"class.open_spiel::leduc_poker::LeducState", ptr %11, i32 0, i32 14
  %71 = load i64, ptr %6, align 8
  %72 = call noundef nonnull align 4 dereferenceable(4) ptr @_ZNSt6vectorIiSaIiEEixEm(ptr noundef nonnull align 8 dereferenceable(24) %70, i64 noundef %71) #3
  store i32 -10000, ptr %72, align 4
  br label %73

73:                                               ; preds = %61, %60
  %74 = getelementptr inbounds nuw %"class.open_spiel::leduc_poker::LeducState", ptr %11, i32 0, i32 9
  %75 = load i32, ptr %74, align 4
  %76 = add nsw i32 %75, -1
  store i32 %76, ptr %74, align 4
  %77 = getelementptr inbounds nuw %"class.open_spiel::leduc_poker::LeducState", ptr %11, i32 0, i32 10
  %78 = load i32, ptr %77, align 8
  %79 = add nsw i32 %78, 1
  store i32 %79, ptr %77, align 8
  %80 = getelementptr inbounds nuw %"class.open_spiel::leduc_poker::LeducState", ptr %11, i32 0, i32 10
  %81 = load i32, ptr %80, align 8
  %82 = getelementptr inbounds nuw %"class.open_spiel::State", ptr %11, i32 0, i32 3
  %83 = load i32, ptr %82, align 4
  %84 = icmp eq i32 %81, %83
  br i1 %84, label %85, label %87

85:                                               ; preds = %73
  %86 = getelementptr inbounds nuw %"class.open_spiel::leduc_poker::LeducState", ptr %11, i32 0, i32 1
  store i32 0, ptr %86, align 4
  br label %87

87:                                               ; preds = %85, %73
  ret void

88:                                               ; preds = %58
  %89 = load ptr, ptr %9, align 8
  %90 = load i32, ptr %10, align 4
  %91 = insertvalue { ptr, i32 } poison, ptr %89, 0
  %92 = insertvalue { ptr, i32 } %91, i32 %90, 1
  resume { ptr, i32 } %92
}