; Function Attrs: mustprogress uwtable
define void @_ZN10open_spiel11leduc_poker10LeducState10SetPrivateEil(ptr nocapture noundef nonnull align 8 dereferenceable(330) %0, i32 noundef %1, i64 noundef %2) local_unnamed_addr #3 align 2 personality ptr @__gxx_personality_v0 {
  %4 = alloca %"class.std::__cxx11::basic_string", align 8
  %5 = alloca %"class.std::allocator", align 1
  %6 = getelementptr inbounds nuw i8, ptr %0, i64 329
  %7 = load i8, ptr %6, align 1
  %8 = trunc i8 %7 to i1
  br i1 %8, label %9, label %32

9:                                                ; preds = %3
  %10 = trunc i64 %2 to i32
  %11 = getelementptr inbounds nuw i8, ptr %0, i64 144
  %12 = sext i32 %1 to i64
  %13 = load ptr, ptr %11, align 8
  %14 = getelementptr inbounds i32, ptr %13, i64 %12
  store i32 %10, ptr %14, align 4
  %15 = getelementptr inbounds nuw i8, ptr %0, i64 168
  %16 = shl nsw i64 %2, 1
  %17 = load ptr, ptr %15, align 8
  %18 = getelementptr inbounds i32, ptr %17, i64 %16
  %19 = load i32, ptr %18, align 4
  %.not = icmp eq i32 %19, -10000
  br i1 %.not, label %20, label %43

20:                                               ; preds = %9
  %21 = or disjoint i64 %16, 1
  %22 = getelementptr inbounds i32, ptr %17, i64 %21
  %23 = load i32, ptr %22, align 4
  %.not12 = icmp eq i32 %23, -10000
  br i1 %.not12, label %24, label %43

24:                                               ; preds = %20
  call void @_ZNSaIcEC1Ev(ptr noundef nonnull align 1 dereferenceable(1) %5) #28
  invoke void @_ZNSt7__cxx1112basic_stringIcSt11char_traitsIcESaIcEEC2IS3_EEPKcRKS3_(ptr noundef nonnull align 8 dereferenceable(32) %4, ptr noundef nonnull @.str.23, ptr noundef nonnull align 1 dereferenceable(1) %5)
          to label %25 unwind label %27

25:                                               ; preds = %24
  invoke void @_ZN10open_spiel15SpielFatalErrorERKNSt7__cxx1112basic_stringIcSt11char_traitsIcESaIcEEE(ptr noundef nonnull align 8 dereferenceable(32) %4) #27
          to label %26 unwind label %29

26:                                               ; preds = %25
  unreachable

27:                                               ; preds = %24
  %28 = landingpad { ptr, i32 }
          cleanup
  br label %31

29:                                               ; preds = %25
  %30 = landingpad { ptr, i32 }
          cleanup
  call void @_ZNSt7__cxx1112basic_stringIcSt11char_traitsIcESaIcEED1Ev(ptr noundef nonnull align 8 dereferenceable(32) %4) #28
  br label %31

31:                                               ; preds = %29, %27
  %.pn = phi { ptr, i32 } [ %30, %29 ], [ %28, %27 ]
  call void @_ZNSaIcED1Ev(ptr noundef nonnull align 1 dereferenceable(1) %5) #28
  resume { ptr, i32 } %.pn

32:                                               ; preds = %3
  %33 = getelementptr inbounds nuw i8, ptr %0, i64 168
  %34 = load ptr, ptr %33, align 8
  %35 = getelementptr inbounds i32, ptr %34, i64 %2
  %36 = load i32, ptr %35, align 4
  %37 = getelementptr inbounds nuw i8, ptr %0, i64 144
  %38 = sext i32 %1 to i64
  %39 = load ptr, ptr %37, align 8
  %40 = getelementptr inbounds i32, ptr %39, i64 %38
  store i32 %36, ptr %40, align 4
  %41 = load ptr, ptr %33, align 8
  %42 = getelementptr inbounds i32, ptr %41, i64 %2
  br label %43

43:                                               ; preds = %20, %9, %32
  %.sink = phi ptr [ %42, %32 ], [ %18, %9 ], [ %22, %20 ]
  store i32 -10000, ptr %.sink, align 4
  %44 = getelementptr inbounds nuw i8, ptr %0, i64 92
  %45 = load i32, ptr %44, align 4
  %46 = add nsw i32 %45, -1
  store i32 %46, ptr %44, align 4
  %47 = getelementptr inbounds nuw i8, ptr %0, i64 96
  %48 = load i32, ptr %47, align 8
  %49 = add nsw i32 %48, 1
  store i32 %49, ptr %47, align 8
  %50 = getelementptr inbounds nuw i8, ptr %0, i64 28
  %51 = load i32, ptr %50, align 4
  %52 = icmp eq i32 %49, %51
  br i1 %52, label %53, label %55

53:                                               ; preds = %43
  %54 = getelementptr inbounds nuw i8, ptr %0, i64 60
  store i32 0, ptr %54, align 4
  br label %55

55:                                               ; preds = %53, %43
  ret void
}